target datalayout = "e-m:e-p270:32:32-p271:32:32-p272:64:64-i64:64-i128:128-f80:128-n8:16:32:64-S128"
target triple = "x86_64-pc-linux-gnu"

%struct.re_registers = type { i32, i32, ptr, ptr }
%struct.RMatch = type { %struct.RBasic, i64, i64 }
%struct.RBasic = type { i64, i64 }
%struct.rb_matchext_struct = type { %struct.re_registers, ptr, i32 }
%struct.rmatch_offset = type { i64, i64 }

@rb_eTypeError = external global i64, align 8
@.str.76 = private unnamed_addr constant [24 x i8] c"uninitialized MatchData\00", align 1
@rb_eIndexError = external global i64, align 8
@.str.120 = private unnamed_addr constant [24 x i8] c"index %d out of matches\00", align 1

; Function Attrs: inlinehint nounwind sspstrong willreturn memory(none) uwtable
define internal i64 @RB_INT2FIX(i64 noundef %0) #7 {
  %2 = alloca i64, align 8
  %3 = alloca i64, align 8
  %4 = alloca i64, align 8
  %5 = alloca i64, align 8
  %6 = alloca i64, align 8
  %7 = alloca i64, align 8
  store i64 %0, ptr %2, align 8, !tbaa !11
  call void @llvm.lifetime.start.p0(i64 8, ptr %3) #28
  %8 = load i64, ptr %2, align 8, !tbaa !11
  store i64 %8, ptr %3, align 8, !tbaa !11
  call void @llvm.lifetime.start.p0(i64 8, ptr %4) #28
  %9 = load i64, ptr %3, align 8, !tbaa !11
  %10 = shl i64 %9, 1
  %11 = add i64 %10, 1
  store i64 %11, ptr %4, align 8, !tbaa !11
  call void @llvm.lifetime.start.p0(i64 8, ptr %5) #28
  %12 = load i64, ptr %4, align 8, !tbaa !11
  store i64 %12, ptr %5, align 8, !tbaa !11
  call void @llvm.lifetime.start.p0(i64 8, ptr %6) #28
  %13 = load i64, ptr %5, align 8, !tbaa !11
  store i64 %13, ptr %6, align 8, !tbaa !11
  call void @llvm.lifetime.start.p0(i64 8, ptr %7) #28
  %14 = load i64, ptr %6, align 8, !tbaa !11
  store i64 %14, ptr %7, align 8, !tbaa !11
  %15 = load i64, ptr %7, align 8, !tbaa !11
  call void @llvm.lifetime.end.p0(i64 8, ptr %7) #28
  call void @llvm.lifetime.end.p0(i64 8, ptr %6) #28
  call void @llvm.lifetime.end.p0(i64 8, ptr %5) #28
  call void @llvm.lifetime.end.p0(i64 8, ptr %4) #28
  call void @llvm.lifetime.end.p0(i64 8, ptr %3) #28
  ret i64 %15
}

; Function Attrs: inlinehint nounwind sspstrong uwtable
define internal i64 @rb_long2num_inline(i64 noundef %0) #3 {
  %2 = alloca i64, align 8
  %3 = alloca i64, align 8
  store i64 %0, ptr %3, align 8, !tbaa !11
  %4 = load i64, ptr %3, align 8, !tbaa !11
  %5 = icmp slt i64 %4, 4611686018427387904
  br i1 %5, label %6, label %12

6:                                                ; preds = %1
  %7 = load i64, ptr %3, align 8, !tbaa !11
  %8 = icmp sge i64 %7, -4611686018427387904
  br i1 %8, label %9, label %12

9:                                                ; preds = %6
  %10 = load i64, ptr %3, align 8, !tbaa !11
  %11 = call i64 @RB_INT2FIX(i64 noundef %10) #31
  store i64 %11, ptr %2, align 8
  br label %15

12:                                               ; preds = %6, %1
  %13 = load i64, ptr %3, align 8, !tbaa !11
  %14 = call i64 @rb_int2big(i64 noundef %13)
  store i64 %14, ptr %2, align 8
  br label %15

15:                                               ; preds = %12, %9
  %16 = load i64, ptr %2, align 8
  ret i64 %16
}

; Function Attrs: nounwind sspstrong uwtable
define internal void @backref_number_check(ptr noundef %0, i32 noundef %1) #0 {
  %3 = alloca ptr, align 8
  %4 = alloca i32, align 4
  store ptr %0, ptr %3, align 8, !tbaa !32
  store i32 %1, ptr %4, align 4, !tbaa !16
  %5 = load i32, ptr %4, align 4, !tbaa !16
  %6 = icmp slt i32 %5, 0
  br i1 %6, label %13, label %7

7:                                                ; preds = %2
  %8 = load ptr, ptr %3, align 8, !tbaa !32
  %9 = getelementptr inbounds nuw %struct.re_registers, ptr %8, i32 0, i32 1
  %10 = load i32, ptr %9, align 4, !tbaa !40
  %11 = load i32, ptr %4, align 4, !tbaa !16
  %12 = icmp sle i32 %10, %11
  br i1 %12, label %13, label %16

13:                                               ; preds = %7, %2
  %14 = load i64, ptr @rb_eIndexError, align 8, !tbaa !11
  %15 = load i32, ptr %4, align 4, !tbaa !16
  call void (i64, ptr, ...) @rb_raise(i64 noundef %14, ptr noundef @.str.120, i32 noundef %15) #30
  unreachable

16:                                               ; preds = %7
  ret void
}

; Function Attrs: nounwind sspstrong uwtable
define internal i64 @match_check(i64 noundef %0) #0 {
  %2 = alloca i64, align 8
  store i64 %0, ptr %2, align 8, !tbaa !11
  %3 = load i64, ptr %2, align 8, !tbaa !11
  %4 = inttoptr i64 %3 to ptr
  %5 = getelementptr inbounds nuw %struct.RMatch, ptr %4, i32 0, i32 2
  %6 = load i64, ptr %5, align 8, !tbaa !37
  %7 = icmp ne i64 %6, 0
  br i1 %7, label %10, label %8

8:                                                ; preds = %1
  %9 = load i64, ptr @rb_eTypeError, align 8, !tbaa !11
  call void (i64, ptr, ...) @rb_raise(i64 noundef %9, ptr noundef @.str.76) #30
  unreachable

10:                                               ; preds = %1
  %11 = load i64, ptr %2, align 8, !tbaa !11
  ret i64 %11
}

; Function Attrs: inlinehint nounwind sspstrong willreturn memory(read) uwtable
define internal ptr @RMATCH_REGS(i64 noundef %0) #8 {
  %2 = alloca i64, align 8
  store i64 %0, ptr %2, align 8, !tbaa !11
  %3 = load i64, ptr %2, align 8, !tbaa !11
  %4 = inttoptr i64 %3 to ptr
  %5 = getelementptr i8, ptr %4, i64 32
  %6 = getelementptr inbounds nuw %struct.rb_matchext_struct, ptr %5, i32 0, i32 0
  ret ptr %6
}

; Function Attrs: nounwind sspstrong uwtable
define internal i64 @match_offset(i64 noundef %0, i64 noundef %1) #0 {
  %3 = alloca i64, align 8
  %4 = alloca i64, align 8
  %5 = alloca i64, align 8
  %6 = alloca i32, align 4
  %7 = alloca ptr, align 8
  %8 = alloca i32, align 4
  store i64 %0, ptr %4, align 8, !tbaa !11
  store i64 %1, ptr %5, align 8, !tbaa !11
  call void @llvm.lifetime.start.p0(i64 4, ptr %6) #28
  %9 = load i64, ptr %4, align 8, !tbaa !11
  %10 = load i64, ptr %5, align 8, !tbaa !11
  %11 = call i32 @match_backref_number(i64 noundef %9, i64 noundef %10)
  store i32 %11, ptr %6, align 4, !tbaa !16
  call void @llvm.lifetime.start.p0(i64 8, ptr %7) #28
  %12 = load i64, ptr %4, align 8, !tbaa !11
  %13 = call ptr @RMATCH_REGS(i64 noundef %12) #29
  store ptr %13, ptr %7, align 8, !tbaa !32
  %14 = load i64, ptr %4, align 8, !tbaa !11
  %15 = call i64 @match_check(i64 noundef %14)
  %16 = load ptr, ptr %7, align 8, !tbaa !32
  %17 = load i32, ptr %6, align 4, !tbaa !16
  call void @backref_number_check(ptr noundef %16, i32 noundef %17)
  %18 = load ptr, ptr %7, align 8, !tbaa !32
  %19 = getelementptr inbounds nuw %struct.re_registers, ptr %18, i32 0, i32 2
  %20 = load ptr, ptr %19, align 8, !tbaa !80
  %21 = load i32, ptr %6, align 4, !tbaa !16
  %22 = sext i32 %21 to i64
  %23 = getelementptr i64, ptr %20, i64 %22
  %24 = load i64, ptr %23, align 8, !tbaa !11
  %25 = icmp slt i64 %24, 0
  br i1 %25, label %26, label %28

26:                                               ; preds = %2
  %27 = call i64 @rb_assoc_new(i64 noundef 4, i64 noundef 4)
  store i64 %27, ptr %3, align 8
  store i32 1, ptr %8, align 4
  br label %53

28:                                               ; preds = %2
  %29 = load i64, ptr %4, align 8, !tbaa !11
  call void @update_char_offset(i64 noundef %29)
  %30 = load i64, ptr %4, align 8, !tbaa !11
  %31 = inttoptr i64 %30 to ptr
  %32 = getelementptr i8, ptr %31, i64 32
  %33 = getelementptr inbounds nuw %struct.rb_matchext_struct, ptr %32, i32 0, i32 1
  %34 = load ptr, ptr %33, align 8, !tbaa !107
  %35 = load i32, ptr %6, align 4, !tbaa !16
  %36 = sext i32 %35 to i64
  %37 = getelementptr %struct.rmatch_offset, ptr %34, i64 %36
  %38 = getelementptr inbounds nuw %struct.rmatch_offset, ptr %37, i32 0, i32 0
  %39 = load i64, ptr %38, align 8, !tbaa !109
  %40 = call i64 @rb_long2num_inline(i64 noundef %39)
  %41 = load i64, ptr %4, align 8, !tbaa !11
  %42 = inttoptr i64 %41 to ptr
  %43 = getelementptr i8, ptr %42, i64 32
  %44 = getelementptr inbounds nuw %struct.rb_matchext_struct, ptr %43, i32 0, i32 1
  %45 = load ptr, ptr %44, align 8, !tbaa !107
  %46 = load i32, ptr %6, align 4, !tbaa !16
  %47 = sext i32 %46 to i64
  %48 = getelementptr %struct.rmatch_offset, ptr %45, i64 %47
  %49 = getelementptr inbounds nuw %struct.rmatch_offset, ptr %48, i32 0, i32 1
  %50 = load i64, ptr %49, align 8, !tbaa !111
  %51 = call i64 @rb_long2num_inline(i64 noundef %50)
  %52 = call i64 @rb_assoc_new(i64 noundef %40, i64 noundef %51)
  store i64 %52, ptr %3, align 8
  store i32 1, ptr %8, align 4
  br label %53

53:                                               ; preds = %28, %26
  call void @llvm.lifetime.end.p0(i64 8, ptr %7) #28
  call void @llvm.lifetime.end.p0(i64 4, ptr %6) #28
  %54 = load i64, ptr %3, align 8
  ret i64 %54
}