; Function Attrs: nounwind sspstrong uwtable
define internal i64 @match_offset(i64 noundef %0, i64 noundef %1) #2 {
  %3 = tail call fastcc i32 @match_backref_number(i64 noundef %0, i64 noundef %1)
  %4 = inttoptr i64 %0 to ptr
  %5 = getelementptr inbounds nuw i8, ptr %4, i64 24
  %6 = load i64, ptr %5, align 8, !tbaa !31
  %.not.i = icmp eq i64 %6, 0
  br i1 %.not.i, label %7, label %match_check.exit

7:                                                ; preds = %2
  %8 = load i64, ptr @rb_eTypeError, align 8, !tbaa !18
  tail call void (i64, ptr, ...) @rb_raise(i64 noundef %8, ptr noundef nonnull @.str.76) #30
  unreachable

match_check.exit:                                 ; preds = %2
  %9 = icmp slt i32 %3, 0
  br i1 %9, label %13, label %10

10:                                               ; preds = %match_check.exit
  %11 = getelementptr i8, ptr %4, i64 36
  %12 = load i32, ptr %11, align 4, !tbaa !40
  %.not.i13 = icmp sgt i32 %12, %3
  br i1 %.not.i13, label %backref_number_check.exit, label %13

13:                                               ; preds = %10, %match_check.exit
  %14 = load i64, ptr @rb_eIndexError, align 8, !tbaa !18
  tail call void (i64, ptr, ...) @rb_raise(i64 noundef %14, ptr noundef nonnull @.str.120, i32 noundef %3) #30
  unreachable

backref_number_check.exit:                        ; preds = %10
  %15 = getelementptr i8, ptr %4, i64 40
  %16 = load ptr, ptr %15, align 8, !tbaa !92
  %17 = zext nneg i32 %3 to i64
  %18 = getelementptr i64, ptr %16, i64 %17
  %19 = load i64, ptr %18, align 8, !tbaa !18
  %20 = icmp slt i64 %19, 0
  br i1 %20, label %21, label %23

21:                                               ; preds = %backref_number_check.exit
  %22 = tail call i64 @rb_assoc_new(i64 noundef 4, i64 noundef 4) #29
  br label %44

23:                                               ; preds = %backref_number_check.exit
  tail call fastcc void @update_char_offset(i64 noundef %0)
  %24 = getelementptr i8, ptr %4, i64 56
  %25 = load ptr, ptr %24, align 8, !tbaa !224
  %26 = getelementptr %struct.rmatch_offset, ptr %25, i64 %17
  %27 = load i64, ptr %26, align 8, !tbaa !230
  %28 = add i64 %27, 4611686018427387904
  %or.cond.i = icmp sgt i64 %28, -1
  br i1 %or.cond.i, label %29, label %32

29:                                               ; preds = %23
  %30 = shl nsw i64 %27, 1
  %31 = or disjoint i64 %30, 1
  br label %rb_long2num_inline.exit

32:                                               ; preds = %23
  %33 = tail call i64 @rb_int2big(i64 noundef %27) #29
  %.pre = load ptr, ptr %24, align 8, !tbaa !224
  br label %rb_long2num_inline.exit

rb_long2num_inline.exit:                          ; preds = %29, %32
  %34 = phi ptr [ %25, %29 ], [ %.pre, %32 ]
  %.0.i = phi i64 [ %31, %29 ], [ %33, %32 ]
  %35 = getelementptr %struct.rmatch_offset, ptr %34, i64 %17, i32 1
  %36 = load i64, ptr %35, align 8, !tbaa !232
  %37 = add i64 %36, 4611686018427387904
  %or.cond.i14 = icmp sgt i64 %37, -1
  br i1 %or.cond.i14, label %38, label %41

38:                                               ; preds = %rb_long2num_inline.exit
  %39 = shl nsw i64 %36, 1
  %40 = or disjoint i64 %39, 1
  br label %rb_long2num_inline.exit16

41:                                               ; preds = %rb_long2num_inline.exit
  %42 = tail call i64 @rb_int2big(i64 noundef %36) #29
  br label %rb_long2num_inline.exit16

rb_long2num_inline.exit16:                        ; preds = %38, %41
  %.0.i15 = phi i64 [ %40, %38 ], [ %42, %41 ]
  %43 = tail call i64 @rb_assoc_new(i64 noundef %.0.i, i64 noundef %.0.i15) #29
  br label %44

44:                                               ; preds = %rb_long2num_inline.exit16, %21
  %.0 = phi i64 [ %22, %21 ], [ %43, %rb_long2num_inline.exit16 ]
  ret i64 %.0
}